target datalayout = "e-m:e-p270:32:32-p271:32:32-p272:64:64-i64:64-i128:128-f80:128-n8:16:32:64-S128"
target triple = "x86_64-pc-linux-gnu"

%"class.boost::unit_test::framework::state" = type { ptr, %"class.std::vector", i64, %"class.std::map", i64, i64, i8, %"class.std::set", %"class.std::vector.14", i32, %"class.std::set.19", %"class.boost::execution_monitor", %"class.std::map.25", %"class.boost::unit_test::runtime_config::stream_holder" }
%"class.std::vector" = type { %"struct.std::_Vector_base" }
%"struct.std::_Vector_base" = type { %"struct.std::_Vector_base<boost::unit_test::test_suite *, std::allocator<boost::unit_test::test_suite *>>::_Vector_impl" }
%"struct.std::_Vector_base<boost::unit_test::test_suite *, std::allocator<boost::unit_test::test_suite *>>::_Vector_impl" = type { %"struct.std::_Vector_base<boost::unit_test::test_suite *, std::allocator<boost::unit_test::test_suite *>>::_Vector_impl_data" }
%"struct.std::_Vector_base<boost::unit_test::test_suite *, std::allocator<boost::unit_test::test_suite *>>::_Vector_impl_data" = type { ptr, ptr, ptr }
%"class.std::map" = type { %"class.std::_Rb_tree" }
%"class.std::_Rb_tree" = type { %"struct.std::_Rb_tree<unsigned long, std::pair<const unsigned long, boost::unit_test::test_unit *>, std::_Select1st<std::pair<const unsigned long, boost::unit_test::test_unit *>>, std::less<unsigned long>>::_Rb_tree_impl" }
%"struct.std::_Rb_tree<unsigned long, std::pair<const unsigned long, boost::unit_test::test_unit *>, std::_Select1st<std::pair<const unsigned long, boost::unit_test::test_unit *>>, std::less<unsigned long>>::_Rb_tree_impl" = type { [8 x i8], %"struct.std::_Rb_tree_header" }
%"struct.std::_Rb_tree_header" = type { %"struct.std::_Rb_tree_node_base", i64 }
%"struct.std::_Rb_tree_node_base" = type { i32, ptr, ptr, ptr }
%"class.std::set" = type { %"class.std::_Rb_tree.9" }
%"class.std::_Rb_tree.9" = type { %"struct.std::_Rb_tree<boost::unit_test::test_observer *, boost::unit_test::test_observer *, std::_Identity<boost::unit_test::test_observer *>, boost::unit_test::framework::state::priority_order>::_Rb_tree_impl" }
%"struct.std::_Rb_tree<boost::unit_test::test_observer *, boost::unit_test::test_observer *, std::_Identity<boost::unit_test::test_observer *>, boost::unit_test::framework::state::priority_order>::_Rb_tree_impl" = type { [8 x i8], %"struct.std::_Rb_tree_header" }
%"class.std::vector.14" = type { %"struct.std::_Vector_base.15" }
%"struct.std::_Vector_base.15" = type { %"struct.std::_Vector_base<boost::unit_test::framework::state::context_frame, std::allocator<boost::unit_test::framework::state::context_frame>>::_Vector_impl" }
%"struct.std::_Vector_base<boost::unit_test::framework::state::context_frame, std::allocator<boost::unit_test::framework::state::context_frame>>::_Vector_impl" = type { %"struct.std::_Vector_base<boost::unit_test::framework::state::context_frame, std::allocator<boost::unit_test::framework::state::context_frame>>::_Vector_impl_data" }
%"struct.std::_Vector_base<boost::unit_test::framework::state::context_frame, std::allocator<boost::unit_test::framework::state::context_frame>>::_Vector_impl_data" = type { ptr, ptr, ptr }
%"class.std::set.19" = type { %"class.std::_Rb_tree.20" }
%"class.std::_Rb_tree.20" = type { %"struct.std::_Rb_tree<boost::unit_test::global_fixture *, boost::unit_test::global_fixture *, std::_Identity<boost::unit_test::global_fixture *>, std::less<boost::unit_test::global_fixture *>>::_Rb_tree_impl" }
%"struct.std::_Rb_tree<boost::unit_test::global_fixture *, boost::unit_test::global_fixture *, std::_Identity<boost::unit_test::global_fixture *>, std::less<boost::unit_test::global_fixture *>>::_Rb_tree_impl" = type { [8 x i8], %"struct.std::_Rb_tree_header" }
%"class.boost::execution_monitor" = type { %"class.boost::unit_test::readwrite_property", %"class.boost::unit_test::readwrite_property", %"class.boost::unit_test::readwrite_property.0", %"class.boost::unit_test::readwrite_property", %"class.boost::unit_test::readwrite_property.2", %"class.boost::shared_ptr", %"class.boost::scoped_array" }
%"class.boost::unit_test::readwrite_property.0" = type { %"class.boost::unit_test::class_property.1" }
%"class.boost::unit_test::class_property.1" = type { i64 }
%"class.boost::unit_test::readwrite_property" = type { %"class.boost::unit_test::class_property" }
%"class.boost::unit_test::class_property" = type { i8 }
%"class.boost::unit_test::readwrite_property.2" = type { %"class.boost::unit_test::class_property.3" }
%"class.boost::unit_test::class_property.3" = type { i32 }
%"class.boost::shared_ptr" = type { ptr, %"class.boost::detail::shared_count" }
%"class.boost::detail::shared_count" = type { ptr }
%"class.boost::scoped_array" = type { ptr }
%"class.std::map.25" = type { %"class.std::_Rb_tree.26" }
%"class.std::_Rb_tree.26" = type { %"struct.std::_Rb_tree<boost::unit_test::output_format, std::pair<const boost::unit_test::output_format, boost::unit_test::runtime_config::stream_holder>, std::_Select1st<std::pair<const boost::unit_test::output_format, boost::unit_test::runtime_config::stream_holder>>, std::less<boost::unit_test::output_format>>::_Rb_tree_impl" }
%"struct.std::_Rb_tree<boost::unit_test::output_format, std::pair<const boost::unit_test::output_format, boost::unit_test::runtime_config::stream_holder>, std::_Select1st<std::pair<const boost::unit_test::output_format, boost::unit_test::runtime_config::stream_holder>>, std::less<boost::unit_test::output_format>>::_Rb_tree_impl" = type { [8 x i8], %"struct.std::_Rb_tree_header" }
%"class.boost::unit_test::runtime_config::stream_holder" = type { %"class.boost::shared_ptr.31", ptr }
%"class.boost::shared_ptr.31" = type { ptr, %"class.boost::detail::shared_count" }

@__dso_handle = external hidden global i8
@_ZZN5boost9unit_test9framework4impl12_GLOBAL__N_111s_frk_stateEvE8the_inst = internal global %"class.boost::unit_test::framework::state" zeroinitializer, align 8
@_ZGVZN5boost9unit_test9framework4impl12_GLOBAL__N_111s_frk_stateEvE8the_inst = internal global i64 0, align 8

; Function Attrs: mustprogress uwtable
define internal noundef nonnull align 8 dereferenceable(360) ptr @_ZN5boost9unit_test9framework4impl12_GLOBAL__N_111s_frk_stateEv() #5 personality ptr @__gxx_personality_v0 {
  %1 = alloca ptr, align 8
  %2 = alloca i32, align 4
  %3 = load atomic i8, ptr @_ZGVZN5boost9unit_test9framework4impl12_GLOBAL__N_111s_frk_stateEvE8the_inst acquire, align 8
  %4 = icmp eq i8 %3, 0
  br i1 %4, label %5, label %11, !prof !14

5:                                                ; preds = %0
  %6 = call i32 @__cxa_guard_acquire(ptr @_ZGVZN5boost9unit_test9framework4impl12_GLOBAL__N_111s_frk_stateEvE8the_inst) #3
  %7 = icmp ne i32 %6, 0
  br i1 %7, label %8, label %11

8:                                                ; preds = %5
  invoke void @_ZN5boost9unit_test9framework5stateC2Ev(ptr noundef nonnull align 8 dereferenceable(360) @_ZZN5boost9unit_test9framework4impl12_GLOBAL__N_111s_frk_stateEvE8the_inst)
          to label %9 unwind label %12

9:                                                ; preds = %8
  %10 = call i32 @__cxa_atexit(ptr @_ZN5boost9unit_test9framework5stateD2Ev, ptr @_ZZN5boost9unit_test9framework4impl12_GLOBAL__N_111s_frk_stateEvE8the_inst, ptr @__dso_handle) #3
  call void @__cxa_guard_release(ptr @_ZGVZN5boost9unit_test9framework4impl12_GLOBAL__N_111s_frk_stateEvE8the_inst) #3
  br label %11

11:                                               ; preds = %9, %5, %0
  ret ptr @_ZZN5boost9unit_test9framework4impl12_GLOBAL__N_111s_frk_stateEvE8the_inst

12:                                               ; preds = %8
  %13 = landingpad { ptr, i32 }
          cleanup
  %14 = extractvalue { ptr, i32 } %13, 0
  store ptr %14, ptr %1, align 8
  %15 = extractvalue { ptr, i32 } %13, 1
  store i32 %15, ptr %2, align 4
  call void @__cxa_guard_abort(ptr @_ZGVZN5boost9unit_test9framework4impl12_GLOBAL__N_111s_frk_stateEvE8the_inst) #3
  br label %16

16:                                               ; preds = %12
  %17 = load ptr, ptr %1, align 8
  %18 = load i32, ptr %2, align 4
  %19 = insertvalue { ptr, i32 } poison, ptr %17, 0
  %20 = insertvalue { ptr, i32 } %19, i32 %18, 1
  resume { ptr, i32 } %20
}

; Function Attrs: mustprogress uwtable
define noundef nonnull align 8 dereferenceable(400) ptr @_ZN5boost9unit_test9framework17master_test_suiteEv() #5 personality ptr @__gxx_personality_v0 {
  %1 = alloca ptr, align 8
  %2 = alloca i32, align 4
  %3 = call noundef nonnull align 8 dereferenceable(360) ptr @_ZN5boost9unit_test9framework4impl12_GLOBAL__N_111s_frk_stateEv()
  %4 = getelementptr inbounds nuw %"class.boost::unit_test::framework::state", ptr %3, i32 0, i32 0
  %5 = load ptr, ptr %4, align 8, !tbaa !135
  %6 = icmp ne ptr %5, null
  br i1 %6, label %16, label %7

7:                                                ; preds = %0
  %8 = call noalias noundef nonnull ptr @_Znwm(i64 noundef 400) #26
  invoke void @_ZN5boost9unit_test19master_test_suite_tC1Ev(ptr noundef nonnull align 8 dereferenceable(400) %8)
          to label %9 unwind label %12

9:                                                ; preds = %7
  %10 = call noundef nonnull align 8 dereferenceable(360) ptr @_ZN5boost9unit_test9framework4impl12_GLOBAL__N_111s_frk_stateEv()
  %11 = getelementptr inbounds nuw %"class.boost::unit_test::framework::state", ptr %10, i32 0, i32 0
  store ptr %8, ptr %11, align 8, !tbaa !135
  br label %16

12:                                               ; preds = %7
  %13 = landingpad { ptr, i32 }
          cleanup
  %14 = extractvalue { ptr, i32 } %13, 0
  store ptr %14, ptr %1, align 8
  %15 = extractvalue { ptr, i32 } %13, 1
  store i32 %15, ptr %2, align 4
  call void @_ZdlPvm(ptr noundef %8, i64 noundef 400) #27
  br label %20

16:                                               ; preds = %9, %0
  %17 = call noundef nonnull align 8 dereferenceable(360) ptr @_ZN5boost9unit_test9framework4impl12_GLOBAL__N_111s_frk_stateEv()
  %18 = getelementptr inbounds nuw %"class.boost::unit_test::framework::state", ptr %17, i32 0, i32 0
  %19 = load ptr, ptr %18, align 8, !tbaa !135
  ret ptr %19

20:                                               ; preds = %12
  %21 = load ptr, ptr %1, align 8
  %22 = load i32, ptr %2, align 4
  %23 = insertvalue { ptr, i32 } poison, ptr %21, 0
  %24 = insertvalue { ptr, i32 } %23, i32 %22, 1
  resume { ptr, i32 } %24
}