; Function Attrs: mustprogress uwtable
define noundef nonnull align 8 dereferenceable(400) ptr @_ZN5boost9unit_test9framework17master_test_suiteEv() local_unnamed_addr #3 personality ptr @__gxx_personality_v0 {
  %1 = load atomic i8, ptr @_ZGVZN5boost9unit_test9framework4impl12_GLOBAL__N_111s_frk_stateEvE8the_inst acquire, align 8
  %2 = icmp eq i8 %1, 0
  br i1 %2, label %3, label %_ZN5boost9unit_test9framework4impl12_GLOBAL__N_111s_frk_stateEv.exit, !prof !3

3:                                                ; preds = %0
  %4 = tail call i32 @__cxa_guard_acquire(ptr nonnull @_ZGVZN5boost9unit_test9framework4impl12_GLOBAL__N_111s_frk_stateEvE8the_inst) #26
  %.not.i = icmp eq i32 %4, 0
  br i1 %.not.i, label %_ZN5boost9unit_test9framework4impl12_GLOBAL__N_111s_frk_stateEv.exit, label %5

5:                                                ; preds = %3
  invoke void @_ZN5boost9unit_test9framework5stateC2Ev(ptr noundef nonnull align 8 dereferenceable(360) @_ZZN5boost9unit_test9framework4impl12_GLOBAL__N_111s_frk_stateEvE8the_inst)
          to label %6 unwind label %8

6:                                                ; preds = %5
  %7 = tail call i32 @__cxa_atexit(ptr nonnull @_ZN5boost9unit_test9framework5stateD2Ev, ptr nonnull @_ZZN5boost9unit_test9framework4impl12_GLOBAL__N_111s_frk_stateEvE8the_inst, ptr nonnull @__dso_handle) #26
  tail call void @__cxa_guard_release(ptr nonnull @_ZGVZN5boost9unit_test9framework4impl12_GLOBAL__N_111s_frk_stateEvE8the_inst) #26
  br label %_ZN5boost9unit_test9framework4impl12_GLOBAL__N_111s_frk_stateEv.exit

common.resume:                                    ; preds = %33, %23, %21, %8
  %common.resume.op = phi { ptr, i32 } [ %9, %8 ], [ %22, %21 ], [ %24, %23 ], [ %34, %33 ]
  resume { ptr, i32 } %common.resume.op

8:                                                ; preds = %5
  %9 = landingpad { ptr, i32 }
          cleanup
  tail call void @__cxa_guard_abort(ptr nonnull @_ZGVZN5boost9unit_test9framework4impl12_GLOBAL__N_111s_frk_stateEvE8the_inst) #26
  br label %common.resume

_ZN5boost9unit_test9framework4impl12_GLOBAL__N_111s_frk_stateEv.exit: ; preds = %0, %3, %6
  %10 = load ptr, ptr @_ZZN5boost9unit_test9framework4impl12_GLOBAL__N_111s_frk_stateEvE8the_inst, align 8, !tbaa !247
  %.not = icmp eq ptr %10, null
  br i1 %.not, label %11, label %25

11:                                               ; preds = %_ZN5boost9unit_test9framework4impl12_GLOBAL__N_111s_frk_stateEv.exit
  %12 = tail call noalias noundef nonnull dereferenceable(400) ptr @_Znwm(i64 noundef 400) #29
  invoke void @_ZN5boost9unit_test19master_test_suite_tC1Ev(ptr noundef nonnull align 8 dereferenceable(400) %12)
          to label %13 unwind label %23

13:                                               ; preds = %11
  %14 = load atomic i8, ptr @_ZGVZN5boost9unit_test9framework4impl12_GLOBAL__N_111s_frk_stateEvE8the_inst acquire, align 8
  %15 = icmp eq i8 %14, 0
  br i1 %15, label %16, label %_ZN5boost9unit_test9framework4impl12_GLOBAL__N_111s_frk_stateEv.exit2, !prof !3

16:                                               ; preds = %13
  %17 = tail call i32 @__cxa_guard_acquire(ptr nonnull @_ZGVZN5boost9unit_test9framework4impl12_GLOBAL__N_111s_frk_stateEvE8the_inst) #26
  %.not.i1 = icmp eq i32 %17, 0
  br i1 %.not.i1, label %_ZN5boost9unit_test9framework4impl12_GLOBAL__N_111s_frk_stateEv.exit2, label %18

18:                                               ; preds = %16
  invoke void @_ZN5boost9unit_test9framework5stateC2Ev(ptr noundef nonnull align 8 dereferenceable(360) @_ZZN5boost9unit_test9framework4impl12_GLOBAL__N_111s_frk_stateEvE8the_inst)
          to label %19 unwind label %21

19:                                               ; preds = %18
  %20 = tail call i32 @__cxa_atexit(ptr nonnull @_ZN5boost9unit_test9framework5stateD2Ev, ptr nonnull @_ZZN5boost9unit_test9framework4impl12_GLOBAL__N_111s_frk_stateEvE8the_inst, ptr nonnull @__dso_handle) #26
  tail call void @__cxa_guard_release(ptr nonnull @_ZGVZN5boost9unit_test9framework4impl12_GLOBAL__N_111s_frk_stateEvE8the_inst) #26
  br label %_ZN5boost9unit_test9framework4impl12_GLOBAL__N_111s_frk_stateEv.exit2

21:                                               ; preds = %18
  %22 = landingpad { ptr, i32 }
          cleanup
  tail call void @__cxa_guard_abort(ptr nonnull @_ZGVZN5boost9unit_test9framework4impl12_GLOBAL__N_111s_frk_stateEvE8the_inst) #26
  br label %common.resume

_ZN5boost9unit_test9framework4impl12_GLOBAL__N_111s_frk_stateEv.exit2: ; preds = %13, %16, %19
  store ptr %12, ptr @_ZZN5boost9unit_test9framework4impl12_GLOBAL__N_111s_frk_stateEvE8the_inst, align 8, !tbaa !247
  br label %25

23:                                               ; preds = %11
  %24 = landingpad { ptr, i32 }
          cleanup
  tail call void @_ZdlPvm(ptr noundef nonnull %12, i64 noundef 400) #28
  br label %common.resume

25:                                               ; preds = %_ZN5boost9unit_test9framework4impl12_GLOBAL__N_111s_frk_stateEv.exit2, %_ZN5boost9unit_test9framework4impl12_GLOBAL__N_111s_frk_stateEv.exit
  %26 = load atomic i8, ptr @_ZGVZN5boost9unit_test9framework4impl12_GLOBAL__N_111s_frk_stateEvE8the_inst acquire, align 8
  %27 = icmp eq i8 %26, 0
  br i1 %27, label %28, label %_ZN5boost9unit_test9framework4impl12_GLOBAL__N_111s_frk_stateEv.exit4, !prof !3

28:                                               ; preds = %25
  %29 = tail call i32 @__cxa_guard_acquire(ptr nonnull @_ZGVZN5boost9unit_test9framework4impl12_GLOBAL__N_111s_frk_stateEvE8the_inst) #26
  %.not.i3 = icmp eq i32 %29, 0
  br i1 %.not.i3, label %_ZN5boost9unit_test9framework4impl12_GLOBAL__N_111s_frk_stateEv.exit4, label %30

30:                                               ; preds = %28
  invoke void @_ZN5boost9unit_test9framework5stateC2Ev(ptr noundef nonnull align 8 dereferenceable(360) @_ZZN5boost9unit_test9framework4impl12_GLOBAL__N_111s_frk_stateEvE8the_inst)
          to label %31 unwind label %33

31:                                               ; preds = %30
  %32 = tail call i32 @__cxa_atexit(ptr nonnull @_ZN5boost9unit_test9framework5stateD2Ev, ptr nonnull @_ZZN5boost9unit_test9framework4impl12_GLOBAL__N_111s_frk_stateEvE8the_inst, ptr nonnull @__dso_handle) #26
  tail call void @__cxa_guard_release(ptr nonnull @_ZGVZN5boost9unit_test9framework4impl12_GLOBAL__N_111s_frk_stateEvE8the_inst) #26
  br label %_ZN5boost9unit_test9framework4impl12_GLOBAL__N_111s_frk_stateEv.exit4

33:                                               ; preds = %30
  %34 = landingpad { ptr, i32 }
          cleanup
  tail call void @__cxa_guard_abort(ptr nonnull @_ZGVZN5boost9unit_test9framework4impl12_GLOBAL__N_111s_frk_stateEvE8the_inst) #26
  br label %common.resume

_ZN5boost9unit_test9framework4impl12_GLOBAL__N_111s_frk_stateEv.exit4: ; preds = %25, %28, %31
  %35 = load ptr, ptr @_ZZN5boost9unit_test9framework4impl12_GLOBAL__N_111s_frk_stateEvE8the_inst, align 8, !tbaa !247
  ret ptr %35
}